target datalayout = "e-m:e-p270:32:32-p271:32:32-p272:64:64-i64:64-i128:128-f80:128-n8:16:32:64-S128"
target triple = "x86_64-pc-linux-gnu"

%class.FrameInformation = type { %class.QObject, %class.IDataPrintable, ptr, ptr, ptr, %struct.wtap_rec, %struct.Buffer }
%class.QObject = type { ptr, %class.QScopedPointer }
%class.QScopedPointer = type { ptr }
%class.IDataPrintable = type { ptr }
%struct.wtap_rec = type { i32, i32, i32, %struct.nstime_t, i32, %struct.nstime_t, i32, %union.anon, ptr, i32, %struct.Buffer }
%struct.nstime_t = type { i64, i32 }
%union.anon = type { %struct.wtap_packet_header }
%struct.wtap_packet_header = type { i32, i32, i32, i32, %union.wtap_pseudo_header }
%union.wtap_pseudo_header = type { %struct.erf_mc_phdr }
%struct.erf_mc_phdr = type { %struct.erf_phdr, [16 x %struct.erf_ehdr], %union.anon.1 }
%struct.erf_phdr = type { i64, i8, i8, i16, i16, i16 }
%struct.erf_ehdr = type { i64 }
%union.anon.1 = type { i32 }
%struct.Buffer = type { ptr, i64, i64, i64 }
%struct._capture_file = type { ptr, i32, ptr, ptr, i32, i32, i32, i64, i16, i32, i32, i32, ptr, i32, i64, i32, i32, i32, i32, i32, i32, %struct.nstime_t, i32, ptr, ptr, ptr, i32, i32, i32, ptr, i32, i32, i32, i32, i32, i32, i32, i32, ptr, i32, i32, i32, %struct.packet_provider_data, i32, i32, %struct.epan_column_info, ptr, ptr, ptr, %struct.wtap_rec, %struct.Buffer, ptr, i64, i32 }
%struct.packet_provider_data = type { ptr, ptr, ptr, ptr, ptr, ptr }
%struct.epan_column_info = type { ptr, i32, ptr, ptr, ptr, %struct.col_expr_t, i32, ptr }
%struct.col_expr_t = type { ptr, ptr }
%class.CaptureFile = type { %class.QObject, ptr, %class.QString }
%class.QString = type { %struct.QArrayDataPointer }
%struct.QArrayDataPointer = type { ptr, ptr, i64 }

; Function Attrs: mustprogress uwtable
define linkonce_odr noundef ptr @_ZNK11CaptureFile7capFileEv(ptr noundef nonnull align 8 dereferenceable(48) %0) #0 comdat align 2 {
  %2 = alloca ptr, align 8
  store ptr %0, ptr %2, align 8
  %3 = load ptr, ptr %2, align 8
  %4 = call noundef zeroext i1 @_ZNK11CaptureFile7isValidEv(ptr noundef nonnull align 8 dereferenceable(48) %3)
  br i1 %4, label %5, label %8

5:                                                ; preds = %1
  %6 = getelementptr inbounds %class.CaptureFile, ptr %3, i32 0, i32 1
  %7 = load ptr, ptr %6, align 8
  br label %9

8:                                                ; preds = %1
  br label %9

9:                                                ; preds = %8, %5
  %10 = phi ptr [ %7, %5 ], [ null, %8 ]
  ret ptr %10
}

; Function Attrs: mustprogress uwtable
define void @_ZN16FrameInformation13loadFrameTreeEv(ptr noundef nonnull align 8 dereferenceable(360) %0) #0 align 2 {
  %2 = alloca ptr, align 8
  store ptr %0, ptr %2, align 8
  %3 = load ptr, ptr %2, align 8
  %4 = getelementptr inbounds %class.FrameInformation, ptr %3, i32 0, i32 2
  %5 = load ptr, ptr %4, align 8
  %6 = icmp ne ptr %5, null
  br i1 %6, label %7, label %16

7:                                                ; preds = %1
  %8 = getelementptr inbounds %class.FrameInformation, ptr %3, i32 0, i32 3
  %9 = load ptr, ptr %8, align 8
  %10 = icmp ne ptr %9, null
  br i1 %10, label %11, label %16

11:                                               ; preds = %7
  %12 = getelementptr inbounds %class.FrameInformation, ptr %3, i32 0, i32 3
  %13 = load ptr, ptr %12, align 8
  %14 = call noundef ptr @_ZNK11CaptureFile7capFileEv(ptr noundef nonnull align 8 dereferenceable(48) %13)
  %15 = icmp ne ptr %14, null
  br i1 %15, label %17, label %16

16:                                               ; preds = %11, %7, %1
  br label %69

17:                                               ; preds = %11
  %18 = getelementptr inbounds %class.FrameInformation, ptr %3, i32 0, i32 3
  %19 = load ptr, ptr %18, align 8
  %20 = call noundef ptr @_ZNK11CaptureFile7capFileEv(ptr noundef nonnull align 8 dereferenceable(48) %19)
  %21 = getelementptr inbounds %class.FrameInformation, ptr %3, i32 0, i32 2
  %22 = load ptr, ptr %21, align 8
  %23 = getelementptr inbounds %class.FrameInformation, ptr %3, i32 0, i32 5
  %24 = getelementptr inbounds %class.FrameInformation, ptr %3, i32 0, i32 6
  %25 = call i32 @cf_read_record(ptr noundef %20, ptr noundef %22, ptr noundef %23, ptr noundef %24)
  %26 = icmp ne i32 %25, 0
  br i1 %26, label %28, label %27

27:                                               ; preds = %17
  br label %69

28:                                               ; preds = %17
  %29 = call noalias ptr @g_malloc0_n(i64 noundef 1, i64 noundef 464) #11
  %30 = getelementptr inbounds %class.FrameInformation, ptr %3, i32 0, i32 4
  store ptr %29, ptr %30, align 8
  %31 = getelementptr inbounds %class.FrameInformation, ptr %3, i32 0, i32 4
  %32 = load ptr, ptr %31, align 8
  %33 = getelementptr inbounds %class.FrameInformation, ptr %3, i32 0, i32 3
  %34 = load ptr, ptr %33, align 8
  %35 = call noundef ptr @_ZNK11CaptureFile7capFileEv(ptr noundef nonnull align 8 dereferenceable(48) %34)
  %36 = getelementptr inbounds %struct._capture_file, ptr %35, i32 0, i32 0
  %37 = load ptr, ptr %36, align 8
  call void @epan_dissect_init(ptr noundef %32, ptr noundef %37, i32 noundef 1, i32 noundef 1)
  %38 = getelementptr inbounds %class.FrameInformation, ptr %3, i32 0, i32 4
  %39 = load ptr, ptr %38, align 8
  %40 = getelementptr inbounds %class.FrameInformation, ptr %3, i32 0, i32 3
  %41 = load ptr, ptr %40, align 8
  %42 = call noundef ptr @_ZNK11CaptureFile7capFileEv(ptr noundef nonnull align 8 dereferenceable(48) %41)
  %43 = getelementptr inbounds %struct._capture_file, ptr %42, i32 0, i32 45
  call void @col_custom_prime_edt(ptr noundef %39, ptr noundef %43)
  %44 = getelementptr inbounds %class.FrameInformation, ptr %3, i32 0, i32 4
  %45 = load ptr, ptr %44, align 8
  %46 = getelementptr inbounds %class.FrameInformation, ptr %3, i32 0, i32 3
  %47 = load ptr, ptr %46, align 8
  %48 = call noundef ptr @_ZNK11CaptureFile7capFileEv(ptr noundef nonnull align 8 dereferenceable(48) %47)
  %49 = getelementptr inbounds %struct._capture_file, ptr %48, i32 0, i32 8
  %50 = load i16, ptr %49, align 8
  %51 = zext i16 %50 to i32
  %52 = getelementptr inbounds %class.FrameInformation, ptr %3, i32 0, i32 5
  %53 = getelementptr inbounds %class.FrameInformation, ptr %3, i32 0, i32 3
  %54 = load ptr, ptr %53, align 8
  %55 = call noundef ptr @_ZNK11CaptureFile7capFileEv(ptr noundef nonnull align 8 dereferenceable(48) %54)
  %56 = getelementptr inbounds %struct._capture_file, ptr %55, i32 0, i32 42
  %57 = getelementptr inbounds %class.FrameInformation, ptr %3, i32 0, i32 2
  %58 = load ptr, ptr %57, align 8
  %59 = getelementptr inbounds %class.FrameInformation, ptr %3, i32 0, i32 6
  %60 = call ptr @frame_tvbuff_new_buffer(ptr noundef %56, ptr noundef %58, ptr noundef %59)
  %61 = getelementptr inbounds %class.FrameInformation, ptr %3, i32 0, i32 2
  %62 = load ptr, ptr %61, align 8
  %63 = getelementptr inbounds %class.FrameInformation, ptr %3, i32 0, i32 3
  %64 = load ptr, ptr %63, align 8
  %65 = call noundef ptr @_ZNK11CaptureFile7capFileEv(ptr noundef nonnull align 8 dereferenceable(48) %64)
  %66 = getelementptr inbounds %struct._capture_file, ptr %65, i32 0, i32 45
  call void @epan_dissect_run(ptr noundef %45, i32 noundef %51, ptr noundef %52, ptr noundef %60, ptr noundef %62, ptr noundef %66)
  %67 = getelementptr inbounds %class.FrameInformation, ptr %3, i32 0, i32 4
  %68 = load ptr, ptr %67, align 8
  call void @epan_dissect_fill_in_columns(ptr noundef %68, i32 noundef 1, i32 noundef 1)
  br label %69

69:                                               ; preds = %28, %27, %16
  ret void
}