; Function Attrs: mustprogress uwtable
define void @_ZN16FrameInformation13loadFrameTreeEv(ptr noundef nonnull align 8 dereferenceable(360) %0) local_unnamed_addr #0 align 2 {
  %2 = getelementptr inbounds i8, ptr %0, i64 24
  %3 = load ptr, ptr %2, align 8
  %.not = icmp eq ptr %3, null
  br i1 %.not, label %61, label %4

4:                                                ; preds = %1
  %5 = getelementptr inbounds i8, ptr %0, i64 32
  %6 = load ptr, ptr %5, align 8
  %.not1 = icmp eq ptr %6, null
  br i1 %.not1, label %61, label %7

7:                                                ; preds = %4
  %8 = tail call noundef zeroext i1 @_ZNK11CaptureFile7isValidEv(ptr noundef nonnull align 8 dereferenceable(48) %6)
  %9 = getelementptr inbounds i8, ptr %6, i64 16
  %10 = load ptr, ptr %9, align 8
  %.not24 = icmp ne ptr %10, null
  %.not2.not = select i1 %8, i1 %.not24, i1 false
  br i1 %.not2.not, label %11, label %61

11:                                               ; preds = %7
  %12 = load ptr, ptr %5, align 8
  %13 = tail call noundef zeroext i1 @_ZNK11CaptureFile7isValidEv(ptr noundef nonnull align 8 dereferenceable(48) %12)
  %14 = getelementptr inbounds i8, ptr %12, i64 16
  %15 = load ptr, ptr %14, align 8
  %16 = select i1 %13, ptr %15, ptr null
  %17 = load ptr, ptr %2, align 8
  %18 = getelementptr inbounds i8, ptr %0, i64 48
  %19 = getelementptr inbounds i8, ptr %0, i64 328
  %20 = tail call i32 @cf_read_record(ptr noundef %16, ptr noundef %17, ptr noundef nonnull %18, ptr noundef nonnull %19)
  %.not3 = icmp eq i32 %20, 0
  br i1 %.not3, label %61, label %21

21:                                               ; preds = %11
  %22 = tail call noalias dereferenceable_or_null(464) ptr @g_malloc0_n(i64 noundef 1, i64 noundef 464) #14
  %23 = getelementptr inbounds i8, ptr %0, i64 40
  store ptr %22, ptr %23, align 8
  %24 = load ptr, ptr %5, align 8
  %25 = tail call noundef zeroext i1 @_ZNK11CaptureFile7isValidEv(ptr noundef nonnull align 8 dereferenceable(48) %24)
  %26 = getelementptr inbounds i8, ptr %24, i64 16
  %27 = load ptr, ptr %26, align 8
  %28 = load ptr, ptr %27, align 8
  tail call void @epan_dissect_init(ptr noundef %22, ptr noundef %28, i32 noundef 1, i32 noundef 1)
  %29 = load ptr, ptr %23, align 8
  %30 = load ptr, ptr %5, align 8
  %31 = tail call noundef zeroext i1 @_ZNK11CaptureFile7isValidEv(ptr noundef nonnull align 8 dereferenceable(48) %30)
  %32 = getelementptr inbounds i8, ptr %30, i64 16
  %33 = load ptr, ptr %32, align 8
  %34 = select i1 %31, ptr %33, ptr null
  %35 = getelementptr inbounds i8, ptr %34, i64 304
  tail call void @col_custom_prime_edt(ptr noundef %29, ptr noundef nonnull %35)
  %36 = load ptr, ptr %23, align 8
  %37 = load ptr, ptr %5, align 8
  %38 = tail call noundef zeroext i1 @_ZNK11CaptureFile7isValidEv(ptr noundef nonnull align 8 dereferenceable(48) %37)
  %39 = getelementptr inbounds i8, ptr %37, i64 16
  %40 = load ptr, ptr %39, align 8
  %41 = select i1 %38, ptr %40, ptr null
  %42 = getelementptr inbounds i8, ptr %41, i64 56
  %43 = load i16, ptr %42, align 8
  %44 = zext i16 %43 to i32
  %45 = load ptr, ptr %5, align 8
  %46 = tail call noundef zeroext i1 @_ZNK11CaptureFile7isValidEv(ptr noundef nonnull align 8 dereferenceable(48) %45)
  %47 = getelementptr inbounds i8, ptr %45, i64 16
  %48 = load ptr, ptr %47, align 8
  %49 = select i1 %46, ptr %48, ptr null
  %50 = getelementptr inbounds i8, ptr %49, i64 248
  %51 = load ptr, ptr %2, align 8
  %52 = tail call ptr @frame_tvbuff_new_buffer(ptr noundef nonnull %50, ptr noundef %51, ptr noundef nonnull %19)
  %53 = load ptr, ptr %2, align 8
  %54 = load ptr, ptr %5, align 8
  %55 = tail call noundef zeroext i1 @_ZNK11CaptureFile7isValidEv(ptr noundef nonnull align 8 dereferenceable(48) %54)
  %56 = getelementptr inbounds i8, ptr %54, i64 16
  %57 = load ptr, ptr %56, align 8
  %58 = select i1 %55, ptr %57, ptr null
  %59 = getelementptr inbounds i8, ptr %58, i64 304
  tail call void @epan_dissect_run(ptr noundef %36, i32 noundef %44, ptr noundef nonnull %18, ptr noundef %52, ptr noundef %53, ptr noundef nonnull %59)
  %60 = load ptr, ptr %23, align 8
  tail call void @epan_dissect_fill_in_columns(ptr noundef %60, i32 noundef 1, i32 noundef 1)
  br label %61

61:                                               ; preds = %11, %1, %4, %7, %21
  ret void
}